target datalayout = "e-m:e-p270:32:32-p271:32:32-p272:64:64-i64:64-i128:128-f80:128-n8:16:32:64-S128"
target triple = "x86_64-pc-linux-gnu"

%struct._zval_struct = type { %union._zend_value, %union.anon.9, %union.anon.12 }
%union._zend_value = type { i64 }
%union.anon.9 = type { i32 }
%union.anon.12 = type { i32 }
%struct._zend_array = type { %struct._zend_refcounted_h, %union.anon.1, i32, %union.anon.2, i32, i32, i32, i32, i64, ptr }
%struct._zend_refcounted_h = type { i32, %union.anon.0 }
%union.anon.0 = type { i32 }
%union.anon.1 = type { i32 }
%union.anon.2 = type { ptr }
%struct._zend_class_entry = type { i8, ptr, %union.anon, i32, i32, i32, i32, ptr, ptr, ptr, %struct._zend_array, %struct._zend_array, %struct._zend_array, ptr, ptr, ptr, ptr, ptr, ptr, ptr, ptr, ptr, ptr, ptr, ptr, ptr, ptr, ptr, ptr, ptr, ptr, ptr, %union.anon.3, ptr, ptr, ptr, ptr, i32, i32, i32, i32, %union.anon.4, ptr, ptr, ptr, ptr, i32, ptr, ptr, %union.anon.5 }
%union.anon = type { ptr }
%union.anon.3 = type { ptr }
%union.anon.4 = type { ptr }
%union.anon.5 = type { %struct.anon.6 }
%struct.anon.6 = type { ptr, i32, i32 }
%struct.reflection_object = type { %struct._zval_struct, ptr, ptr, i32, %struct._zend_object }
%struct._zend_object = type { %struct._zend_refcounted_h, i32, i32, ptr, ptr, ptr, [1 x %struct._zval_struct] }
%struct._zend_string = type { %struct._zend_refcounted_h, i64, i64, [1 x i8] }
%struct._zend_execute_data = type { ptr, ptr, ptr, ptr, %struct._zval_struct, ptr, ptr, ptr, ptr }
%struct.anon.10 = type { i8, i8, %union.anon.11 }
%union.anon.11 = type { i16 }

@zend_ce_fiber = external global ptr, align 8

; Function Attrs: alwaysinline nounwind uwtable
define internal zeroext i1 @instanceof_function(ptr noundef %0, ptr noundef %1) #4 {
  %3 = alloca ptr, align 8
  %4 = alloca ptr, align 8
  store ptr %0, ptr %3, align 8, !tbaa !4
  store ptr %1, ptr %4, align 8, !tbaa !4
  %5 = load ptr, ptr %3, align 8, !tbaa !4
  %6 = load ptr, ptr %4, align 8, !tbaa !4
  %7 = icmp eq ptr %5, %6
  br i1 %7, label %12, label %8

8:                                                ; preds = %2
  %9 = load ptr, ptr %3, align 8, !tbaa !4
  %10 = load ptr, ptr %4, align 8, !tbaa !4
  %11 = call zeroext i1 @instanceof_function_slow(ptr noundef %9, ptr noundef %10)
  br label %12

12:                                               ; preds = %8, %2
  %13 = phi i1 [ true, %2 ], [ %11, %8 ]
  ret i1 %13
}

; Function Attrs: alwaysinline nounwind uwtable
define internal zeroext i8 @zval_get_type(ptr noundef %0) #4 {
  %2 = alloca ptr, align 8
  store ptr %0, ptr %2, align 8, !tbaa !9
  %3 = load ptr, ptr %2, align 8, !tbaa !9
  %4 = getelementptr inbounds nuw %struct._zval_struct, ptr %3, i32 0, i32 1
  %5 = getelementptr inbounds nuw %struct.anon.10, ptr %4, i32 0, i32 0
  %6 = load i8, ptr %5, align 8, !tbaa !29
  ret i8 %6
}

; Function Attrs: alwaysinline nounwind uwtable
define internal i32 @zend_gc_addref(ptr noundef %0) #4 {
  %2 = alloca ptr, align 8
  store ptr %0, ptr %2, align 8, !tbaa !44
  br label %3

3:                                                ; preds = %1
  br label %4

4:                                                ; preds = %3
  %5 = load ptr, ptr %2, align 8, !tbaa !44
  %6 = getelementptr inbounds nuw %struct._zend_refcounted_h, ptr %5, i32 0, i32 0
  %7 = load i32, ptr %6, align 4, !tbaa !46
  %8 = add i32 %7, 1
  store i32 %8, ptr %6, align 4, !tbaa !46
  ret i32 %8
}

; Function Attrs: alwaysinline nounwind uwtable
define internal zeroext i1 @zend_parse_arg_object(ptr noundef %0, ptr noundef %1, ptr noundef %2, i1 noundef zeroext %3) #4 {
  %5 = alloca i1, align 1
  %6 = alloca ptr, align 8
  %7 = alloca ptr, align 8
  %8 = alloca ptr, align 8
  %9 = alloca i8, align 1
  store ptr %0, ptr %6, align 8, !tbaa !9
  store ptr %1, ptr %7, align 8, !tbaa !176
  store ptr %2, ptr %8, align 8, !tbaa !4
  %10 = zext i1 %3 to i8
  store i8 %10, ptr %9, align 1, !tbaa !78
  %11 = load ptr, ptr %6, align 8, !tbaa !9
  %12 = call zeroext i8 @zval_get_type(ptr noundef %11)
  %13 = zext i8 %12 to i32
  %14 = icmp eq i32 %13, 8
  %15 = xor i1 %14, true
  %16 = xor i1 %15, true
  %17 = zext i1 %16 to i32
  %18 = sext i32 %17 to i64
  %19 = call i64 @llvm.expect.i64(i64 %18, i64 1)
  %20 = icmp ne i64 %19, 0
  br i1 %20, label %21, label %43

21:                                               ; preds = %4
  %22 = load ptr, ptr %8, align 8, !tbaa !4
  %23 = icmp ne ptr %22, null
  br i1 %23, label %24, label %40

24:                                               ; preds = %21
  %25 = load ptr, ptr %6, align 8, !tbaa !9
  %26 = getelementptr inbounds nuw %struct._zval_struct, ptr %25, i32 0, i32 0
  %27 = load ptr, ptr %26, align 8, !tbaa !29
  %28 = getelementptr inbounds nuw %struct._zend_object, ptr %27, i32 0, i32 3
  %29 = load ptr, ptr %28, align 8, !tbaa !41
  %30 = load ptr, ptr %8, align 8, !tbaa !4
  %31 = call zeroext i1 @instanceof_function(ptr noundef %29, ptr noundef %30)
  %32 = zext i1 %31 to i32
  %33 = icmp ne i32 %32, 0
  %34 = xor i1 %33, true
  %35 = xor i1 %34, true
  %36 = zext i1 %35 to i32
  %37 = sext i32 %36 to i64
  %38 = call i64 @llvm.expect.i64(i64 %37, i64 1)
  %39 = icmp ne i64 %38, 0
  br i1 %39, label %40, label %43

40:                                               ; preds = %24, %21
  %41 = load ptr, ptr %6, align 8, !tbaa !9
  %42 = load ptr, ptr %7, align 8, !tbaa !176
  store ptr %41, ptr %42, align 8, !tbaa !9
  br label %61

43:                                               ; preds = %24, %4
  %44 = load i8, ptr %9, align 1, !tbaa !78, !range !79, !noundef !80
  %45 = trunc i8 %44 to i1
  br i1 %45, label %46, label %59

46:                                               ; preds = %43
  %47 = load ptr, ptr %6, align 8, !tbaa !9
  %48 = call zeroext i8 @zval_get_type(ptr noundef %47)
  %49 = zext i8 %48 to i32
  %50 = icmp eq i32 %49, 1
  %51 = xor i1 %50, true
  %52 = xor i1 %51, true
  %53 = zext i1 %52 to i32
  %54 = sext i32 %53 to i64
  %55 = call i64 @llvm.expect.i64(i64 %54, i64 1)
  %56 = icmp ne i64 %55, 0
  br i1 %56, label %57, label %59

57:                                               ; preds = %46
  %58 = load ptr, ptr %7, align 8, !tbaa !176
  store ptr null, ptr %58, align 8, !tbaa !9
  br label %60

59:                                               ; preds = %46, %43
  store i1 false, ptr %5, align 1
  br label %62

60:                                               ; preds = %57
  br label %61

61:                                               ; preds = %60, %40
  store i1 true, ptr %5, align 1
  br label %62

62:                                               ; preds = %61, %59
  %63 = load i1, ptr %5, align 1
  ret i1 %63
}

; Function Attrs: inlinehint nounwind uwtable
define internal ptr @reflection_object_from_obj(ptr noundef %0) #3 {
  %2 = alloca ptr, align 8
  store ptr %0, ptr %2, align 8, !tbaa !39
  %3 = load ptr, ptr %2, align 8, !tbaa !39
  %4 = getelementptr inbounds i8, ptr %3, i64 -40
  ret ptr %4
}

; Function Attrs: nounwind uwtable
define hidden void @zim_ReflectionFiber___construct(ptr noundef %0, ptr noundef %1) #0 {
  %3 = alloca ptr, align 8
  %4 = alloca ptr, align 8
  %5 = alloca ptr, align 8
  %6 = alloca ptr, align 8
  %7 = alloca ptr, align 8
  %8 = alloca i32, align 4
  %9 = alloca i32, align 4
  %10 = alloca i32, align 4
  %11 = alloca i32, align 4
  %12 = alloca i32, align 4
  %13 = alloca ptr, align 8
  %14 = alloca ptr, align 8
  %15 = alloca i32, align 4
  %16 = alloca ptr, align 8
  %17 = alloca i8, align 1
  %18 = alloca i8, align 1
  %19 = alloca i32, align 4
  %20 = alloca i32, align 4
  %21 = alloca ptr, align 8
  %22 = alloca ptr, align 8
  store ptr %0, ptr %3, align 8, !tbaa !47
  store ptr %1, ptr %4, align 8, !tbaa !9
  call void @llvm.lifetime.start.p0(i64 8, ptr %5) #14
  call void @llvm.lifetime.start.p0(i64 8, ptr %6) #14
  call void @llvm.lifetime.start.p0(i64 8, ptr %7) #14
  %23 = load ptr, ptr %3, align 8, !tbaa !47
  %24 = getelementptr inbounds nuw %struct._zend_execute_data, ptr %23, i32 0, i32 4
  store ptr %24, ptr %6, align 8, !tbaa !9
  %25 = load ptr, ptr %6, align 8, !tbaa !9
  %26 = getelementptr inbounds nuw %struct._zval_struct, ptr %25, i32 0, i32 0
  %27 = load ptr, ptr %26, align 8, !tbaa !29
  %28 = call ptr @reflection_object_from_obj(ptr noundef %27)
  store ptr %28, ptr %7, align 8, !tbaa !30
  br label %29

29:                                               ; preds = %2
  call void @llvm.lifetime.start.p0(i64 4, ptr %8) #14
  store i32 0, ptr %8, align 4, !tbaa !43
  call void @llvm.lifetime.start.p0(i64 4, ptr %9) #14
  store i32 1, ptr %9, align 4, !tbaa !43
  call void @llvm.lifetime.start.p0(i64 4, ptr %10) #14
  store i32 1, ptr %10, align 4, !tbaa !43
  call void @llvm.lifetime.start.p0(i64 4, ptr %11) #14
  %30 = load ptr, ptr %3, align 8, !tbaa !47
  %31 = getelementptr inbounds nuw %struct._zend_execute_data, ptr %30, i32 0, i32 4
  %32 = getelementptr inbounds nuw %struct._zval_struct, ptr %31, i32 0, i32 2
  %33 = load i32, ptr %32, align 4, !tbaa !29
  store i32 %33, ptr %11, align 4, !tbaa !43
  call void @llvm.lifetime.start.p0(i64 4, ptr %12) #14
  store i32 0, ptr %12, align 4, !tbaa !43
  call void @llvm.lifetime.start.p0(i64 8, ptr %13) #14
  call void @llvm.lifetime.start.p0(i64 8, ptr %14) #14
  store ptr null, ptr %14, align 8, !tbaa !9
  call void @llvm.lifetime.start.p0(i64 4, ptr %15) #14
  store i32 0, ptr %15, align 4, !tbaa !43
  call void @llvm.lifetime.start.p0(i64 8, ptr %16) #14
  store ptr null, ptr %16, align 8, !tbaa !77
  call void @llvm.lifetime.start.p0(i64 1, ptr %17) #14
  store i8 0, ptr %17, align 1, !tbaa !78
  call void @llvm.lifetime.start.p0(i64 1, ptr %18) #14
  store i8 0, ptr %18, align 1, !tbaa !78
  call void @llvm.lifetime.start.p0(i64 4, ptr %19) #14
  store i32 0, ptr %19, align 4, !tbaa !43
  br label %34

34:                                               ; preds = %29
  %35 = load i32, ptr %11, align 4, !tbaa !43
  %36 = load i32, ptr %9, align 4, !tbaa !43
  %37 = icmp ult i32 %35, %36
  %38 = xor i1 %37, true
  %39 = xor i1 %38, true
  %40 = zext i1 %39 to i32
  %41 = sext i32 %40 to i64
  %42 = call i64 @llvm.expect.i64(i64 %41, i64 0)
  %43 = icmp ne i64 %42, 0
  br i1 %43, label %54, label %44

44:                                               ; preds = %34
  %45 = load i32, ptr %11, align 4, !tbaa !43
  %46 = load i32, ptr %10, align 4, !tbaa !43
  %47 = icmp ugt i32 %45, %46
  %48 = xor i1 %47, true
  %49 = xor i1 %48, true
  %50 = zext i1 %49 to i32
  %51 = sext i32 %50 to i64
  %52 = call i64 @llvm.expect.i64(i64 %51, i64 0)
  %53 = icmp ne i64 %52, 0
  br i1 %53, label %54, label %57

54:                                               ; preds = %44, %34
  %55 = load i32, ptr %9, align 4, !tbaa !43
  %56 = load i32, ptr %10, align 4, !tbaa !43
  call void @zend_wrong_parameters_count_error(i32 noundef %55, i32 noundef %56)
  store i32 1, ptr %19, align 4, !tbaa !43
  br label %130

57:                                               ; preds = %44
  %58 = load ptr, ptr %3, align 8, !tbaa !47
  %59 = getelementptr inbounds %struct._zval_struct, ptr %58, i64 4
  store ptr %59, ptr %13, align 8, !tbaa !9
  %60 = load i32, ptr %12, align 4, !tbaa !43
  %61 = add i32 %60, 1
  store i32 %61, ptr %12, align 4, !tbaa !43
  %62 = load i32, ptr %12, align 4, !tbaa !43
  %63 = load i32, ptr %9, align 4, !tbaa !43
  %64 = icmp ule i32 %62, %63
  br i1 %64, label %70, label %65

65:                                               ; preds = %57
  %66 = load i8, ptr %18, align 1, !tbaa !78, !range !79, !noundef !80
  %67 = trunc i8 %66 to i1
  %68 = zext i1 %67 to i32
  %69 = icmp eq i32 %68, 1
  br label %70

70:                                               ; preds = %65, %57
  %71 = phi i1 [ true, %57 ], [ %69, %65 ]
  call void @llvm.assume(i1 %71)
  %72 = load i32, ptr %12, align 4, !tbaa !43
  %73 = load i32, ptr %9, align 4, !tbaa !43
  %74 = icmp ugt i32 %72, %73
  br i1 %74, label %80, label %75

75:                                               ; preds = %70
  %76 = load i8, ptr %18, align 1, !tbaa !78, !range !79, !noundef !80
  %77 = trunc i8 %76 to i1
  %78 = zext i1 %77 to i32
  %79 = icmp eq i32 %78, 0
  br label %80

80:                                               ; preds = %75, %70
  %81 = phi i1 [ true, %70 ], [ %79, %75 ]
  call void @llvm.assume(i1 %81)
  %82 = load i8, ptr %18, align 1, !tbaa !78, !range !79, !noundef !80
  %83 = trunc i8 %82 to i1
  br i1 %83, label %84, label %96

84:                                               ; preds = %80
  %85 = load i32, ptr %12, align 4, !tbaa !43
  %86 = load i32, ptr %11, align 4, !tbaa !43
  %87 = icmp ugt i32 %85, %86
  %88 = xor i1 %87, true
  %89 = xor i1 %88, true
  %90 = zext i1 %89 to i32
  %91 = sext i32 %90 to i64
  %92 = call i64 @llvm.expect.i64(i64 %91, i64 0)
  %93 = icmp ne i64 %92, 0
  br i1 %93, label %94, label %95

94:                                               ; preds = %84
  br label %130

95:                                               ; preds = %84
  br label %96

96:                                               ; preds = %95, %80
  %97 = load ptr, ptr %13, align 8, !tbaa !9
  %98 = getelementptr inbounds nuw %struct._zval_struct, ptr %97, i32 1
  store ptr %98, ptr %13, align 8, !tbaa !9
  %99 = load ptr, ptr %13, align 8, !tbaa !9
  store ptr %99, ptr %14, align 8, !tbaa !9
  %100 = load ptr, ptr %14, align 8, !tbaa !9
  %101 = load ptr, ptr @zend_ce_fiber, align 8, !tbaa !4
  %102 = call zeroext i1 @zend_parse_arg_object(ptr noundef %100, ptr noundef %5, ptr noundef %101, i1 noundef zeroext false)
  %103 = xor i1 %102, true
  %104 = xor i1 %103, true
  %105 = xor i1 %104, true
  %106 = zext i1 %105 to i32
  %107 = sext i32 %106 to i64
  %108 = call i64 @llvm.expect.i64(i64 %107, i64 0)
  %109 = icmp ne i64 %108, 0
  br i1 %109, label %110, label %120

110:                                              ; preds = %96
  %111 = load ptr, ptr @zend_ce_fiber, align 8, !tbaa !4
  %112 = icmp ne ptr %111, null
  br i1 %112, label %113, label %119

113:                                              ; preds = %110
  %114 = load ptr, ptr @zend_ce_fiber, align 8, !tbaa !4
  %115 = getelementptr inbounds nuw %struct._zend_class_entry, ptr %114, i32 0, i32 1
  %116 = load ptr, ptr %115, align 8, !tbaa !37
  %117 = getelementptr inbounds nuw %struct._zend_string, ptr %116, i32 0, i32 3
  %118 = getelementptr inbounds [1 x i8], ptr %117, i64 0, i64 0
  store ptr %118, ptr %16, align 8, !tbaa !77
  store i32 3, ptr %19, align 4, !tbaa !43
  br label %130

119:                                              ; preds = %110
  store i32 18, ptr %15, align 4, !tbaa !43
  store i32 9, ptr %19, align 4, !tbaa !43
  br label %130

120:                                              ; preds = %96
  %121 = load i32, ptr %12, align 4, !tbaa !43
  %122 = load i32, ptr %10, align 4, !tbaa !43
  %123 = icmp eq i32 %121, %122
  br i1 %123, label %127, label %124

124:                                              ; preds = %120
  %125 = load i32, ptr %10, align 4, !tbaa !43
  %126 = icmp eq i32 %125, -1
  br label %127

127:                                              ; preds = %124, %120
  %128 = phi i1 [ true, %120 ], [ %126, %124 ]
  call void @llvm.assume(i1 %128)
  br label %129

129:                                              ; preds = %127
  br label %130

130:                                              ; preds = %129, %119, %113, %94, %54
  %131 = load i32, ptr %19, align 4, !tbaa !43
  %132 = icmp ne i32 %131, 0
  %133 = xor i1 %132, true
  %134 = xor i1 %133, true
  %135 = zext i1 %134 to i32
  %136 = sext i32 %135 to i64
  %137 = call i64 @llvm.expect.i64(i64 %136, i64 0)
  %138 = icmp ne i64 %137, 0
  br i1 %138, label %139, label %145

139:                                              ; preds = %130
  %140 = load i32, ptr %19, align 4, !tbaa !43
  %141 = load i32, ptr %12, align 4, !tbaa !43
  %142 = load ptr, ptr %16, align 8, !tbaa !77
  %143 = load i32, ptr %15, align 4, !tbaa !43
  %144 = load ptr, ptr %14, align 8, !tbaa !9
  call void @zend_wrong_parameter_error(i32 noundef %140, i32 noundef %141, ptr noundef %142, i32 noundef %143, ptr noundef %144)
  store i32 1, ptr %20, align 4
  br label %146

145:                                              ; preds = %130
  store i32 0, ptr %20, align 4
  br label %146

146:                                              ; preds = %145, %139
  call void @llvm.lifetime.end.p0(i64 4, ptr %19) #14
  call void @llvm.lifetime.end.p0(i64 1, ptr %18) #14
  call void @llvm.lifetime.end.p0(i64 1, ptr %17) #14
  call void @llvm.lifetime.end.p0(i64 8, ptr %16) #14
  call void @llvm.lifetime.end.p0(i64 4, ptr %15) #14
  call void @llvm.lifetime.end.p0(i64 8, ptr %14) #14
  call void @llvm.lifetime.end.p0(i64 8, ptr %13) #14
  call void @llvm.lifetime.end.p0(i64 4, ptr %12) #14
  call void @llvm.lifetime.end.p0(i64 4, ptr %11) #14
  call void @llvm.lifetime.end.p0(i64 4, ptr %10) #14
  call void @llvm.lifetime.end.p0(i64 4, ptr %9) #14
  call void @llvm.lifetime.end.p0(i64 4, ptr %8) #14
  %147 = load i32, ptr %20, align 4
  switch i32 %147, label %180 [
    i32 0, label %148
  ]

148:                                              ; preds = %146
  br label %149

149:                                              ; preds = %148
  br label %150

150:                                              ; preds = %149
  %151 = load ptr, ptr %7, align 8, !tbaa !30
  %152 = getelementptr inbounds nuw %struct.reflection_object, ptr %151, i32 0, i32 2
  %153 = load ptr, ptr %152, align 8, !tbaa !36
  %154 = icmp ne ptr %153, null
  br i1 %154, label %155, label %158

155:                                              ; preds = %150
  %156 = load ptr, ptr %7, align 8, !tbaa !30
  %157 = getelementptr inbounds nuw %struct.reflection_object, ptr %156, i32 0, i32 0
  call void @zval_ptr_dtor(ptr noundef %157)
  br label %158

158:                                              ; preds = %155, %150
  %159 = load ptr, ptr %7, align 8, !tbaa !30
  %160 = getelementptr inbounds nuw %struct.reflection_object, ptr %159, i32 0, i32 3
  store i32 3, ptr %160, align 8, !tbaa !35
  br label %161

161:                                              ; preds = %158
  call void @llvm.lifetime.start.p0(i64 8, ptr %21) #14
  %162 = load ptr, ptr %7, align 8, !tbaa !30
  %163 = getelementptr inbounds nuw %struct.reflection_object, ptr %162, i32 0, i32 0
  store ptr %163, ptr %21, align 8, !tbaa !9
  call void @llvm.lifetime.start.p0(i64 8, ptr %22) #14
  %164 = load ptr, ptr %5, align 8, !tbaa !9
  %165 = getelementptr inbounds nuw %struct._zval_struct, ptr %164, i32 0, i32 0
  %166 = load ptr, ptr %165, align 8, !tbaa !29
  store ptr %166, ptr %22, align 8, !tbaa !39
  %167 = load ptr, ptr %22, align 8, !tbaa !39
  %168 = getelementptr inbounds nuw %struct._zend_object, ptr %167, i32 0, i32 0
  %169 = call i32 @zend_gc_addref(ptr noundef %168)
  %170 = load ptr, ptr %22, align 8, !tbaa !39
  %171 = load ptr, ptr %21, align 8, !tbaa !9
  %172 = getelementptr inbounds nuw %struct._zval_struct, ptr %171, i32 0, i32 0
  store ptr %170, ptr %172, align 8, !tbaa !29
  %173 = load ptr, ptr %21, align 8, !tbaa !9
  %174 = getelementptr inbounds nuw %struct._zval_struct, ptr %173, i32 0, i32 1
  store i32 776, ptr %174, align 8, !tbaa !29
  call void @llvm.lifetime.end.p0(i64 8, ptr %22) #14
  call void @llvm.lifetime.end.p0(i64 8, ptr %21) #14
  br label %175

175:                                              ; preds = %161
  br label %176

176:                                              ; preds = %175
  %177 = load ptr, ptr @zend_ce_fiber, align 8, !tbaa !4
  %178 = load ptr, ptr %7, align 8, !tbaa !30
  %179 = getelementptr inbounds nuw %struct.reflection_object, ptr %178, i32 0, i32 2
  store ptr %177, ptr %179, align 8, !tbaa !36
  store i32 0, ptr %20, align 4
  br label %180

180:                                              ; preds = %176, %146
  call void @llvm.lifetime.end.p0(i64 8, ptr %7) #14
  call void @llvm.lifetime.end.p0(i64 8, ptr %6) #14
  call void @llvm.lifetime.end.p0(i64 8, ptr %5) #14
  %181 = load i32, ptr %20, align 4
  switch i32 %181, label %183 [
    i32 0, label %182
    i32 1, label %182
  ]

182:                                              ; preds = %180, %180
  ret void

183:                                              ; preds = %180
  unreachable
}