; Function Attrs: nounwind uwtable
define hidden void @zim_ReflectionFiber___construct(ptr noundef %0, ptr readnone captures(none) %1) #0 {
  %3 = getelementptr inbounds nuw i8, ptr %0, i64 32
  %4 = load ptr, ptr %3, align 8, !tbaa !26
  %5 = getelementptr inbounds i8, ptr %4, i64 -40
  %6 = getelementptr inbounds nuw i8, ptr %0, i64 44
  %7 = load i32, ptr %6, align 4, !tbaa !26
  %cond = icmp eq i32 %7, 1
  br i1 %cond, label %9, label %8, !prof !69

8:                                                ; preds = %2
  tail call void @zend_wrong_parameters_count_error(i32 noundef 1, i32 noundef 1) #13
  br label %zend_parse_arg_object.exit

9:                                                ; preds = %2
  %10 = getelementptr inbounds nuw i8, ptr %0, i64 80
  %11 = load ptr, ptr @zend_ce_fiber, align 8, !tbaa !38
  %12 = getelementptr inbounds nuw i8, ptr %0, i64 88
  %13 = load i8, ptr %12, align 8, !tbaa !26
  %14 = icmp eq i8 %13, 8
  br i1 %14, label %15, label %22, !prof !70

15:                                               ; preds = %9
  %.not.i = icmp eq ptr %11, null
  br i1 %.not.i, label %.critedge, label %16

16:                                               ; preds = %15
  %17 = load ptr, ptr %10, align 8, !tbaa !26
  %18 = getelementptr inbounds nuw i8, ptr %17, i64 16
  %19 = load ptr, ptr %18, align 8, !tbaa !34
  %20 = icmp eq ptr %19, %11
  br i1 %20, label %.critedge, label %instanceof_function.exit.i

instanceof_function.exit.i:                       ; preds = %16
  %21 = tail call zeroext i1 @instanceof_function_slow(ptr noundef %19, ptr noundef nonnull %11) #13
  br i1 %21, label %.critedge, label %thread-pre-split, !prof !71

thread-pre-split:                                 ; preds = %instanceof_function.exit.i
  %.pr = load ptr, ptr @zend_ce_fiber, align 8, !tbaa !38
  br label %22

22:                                               ; preds = %thread-pre-split, %9
  %23 = phi ptr [ %.pr, %thread-pre-split ], [ %11, %9 ]
  %.not48 = icmp eq ptr %23, null
  br i1 %.not48, label %zend_parse_arg_object.exit, label %24, !prof !73

24:                                               ; preds = %22
  %25 = getelementptr inbounds nuw i8, ptr %23, i64 8
  %26 = load ptr, ptr %25, align 8, !tbaa !36
  %27 = getelementptr inbounds nuw i8, ptr %26, i64 24
  br label %zend_parse_arg_object.exit

zend_parse_arg_object.exit:                       ; preds = %8, %24, %22
  %.045 = phi ptr [ null, %8 ], [ %27, %24 ], [ null, %22 ]
  %.044 = phi i32 [ 0, %8 ], [ 0, %24 ], [ 18, %22 ]
  %.043 = phi ptr [ null, %8 ], [ %10, %24 ], [ %10, %22 ]
  %.042 = phi i32 [ 1, %8 ], [ 3, %24 ], [ 9, %22 ]
  %.0 = phi i32 [ 0, %8 ], [ 1, %24 ], [ 1, %22 ]
  tail call void @zend_wrong_parameter_error(i32 noundef %.042, i32 noundef %.0, ptr noundef %.045, i32 noundef %.044, ptr noundef %.043) #13
  br label %38

.critedge:                                        ; preds = %16, %15, %instanceof_function.exit.i
  %28 = getelementptr inbounds i8, ptr %4, i64 -16
  %29 = load ptr, ptr %28, align 8, !tbaa !33
  %.not50 = icmp eq ptr %29, null
  br i1 %.not50, label %31, label %30

30:                                               ; preds = %.critedge
  tail call void @zval_ptr_dtor(ptr noundef nonnull %5) #13
  br label %31

31:                                               ; preds = %30, %.critedge
  %32 = getelementptr inbounds i8, ptr %4, i64 -8
  store i32 3, ptr %32, align 8, !tbaa !32
  %33 = load ptr, ptr %10, align 8, !tbaa !26
  %34 = load i32, ptr %33, align 4, !tbaa !37
  %35 = add i32 %34, 1
  store i32 %35, ptr %33, align 4, !tbaa !37
  store ptr %33, ptr %5, align 8, !tbaa !26
  %36 = getelementptr inbounds i8, ptr %4, i64 -32
  store i32 776, ptr %36, align 8, !tbaa !26
  %37 = load ptr, ptr @zend_ce_fiber, align 8, !tbaa !38
  store ptr %37, ptr %28, align 8, !tbaa !33
  br label %38

38:                                               ; preds = %zend_parse_arg_object.exit, %31
  ret void
}